; Function Attrs: mustprogress uwtable
define hidden noundef ptr @_ZN5zxing6qrcode7Version33getProvisionalVersionForDimensionEiRNS_12ErrorHandlerE(i32 noundef %0, ptr noundef nonnull align 8 dereferenceable(48) %1) local_unnamed_addr #2 align 2 personality ptr @__gxx_personality_v0 {
  %3 = alloca %"class.zxing::ReaderErrorHandler", align 8
  %4 = alloca %"class.zxing::FormatErrorHandler", align 8
  %5 = alloca %"class.zxing::FormatErrorHandler", align 8
  %6 = and i32 %0, -2147483645
  %.not = icmp eq i32 %6, 1
  %.sink13.sroa.gep = getelementptr inbounds i8, ptr %4, i64 16
  %.sink13.sroa.gep15 = getelementptr inbounds i8, ptr %5, i64 16
  %.sink13.sroa.gep16 = getelementptr inbounds i8, ptr %3, i64 16
  %.sink14.sroa.gep = getelementptr inbounds i8, ptr %5, i64 16
  %.sink14.sroa.gep17 = getelementptr inbounds i8, ptr %4, i64 16
  br i1 %.not, label %13, label %7

7:                                                ; preds = %2
  call void @_ZN5zxing12ErrorHandlerC2EPKc(ptr noundef nonnull align 8 dereferenceable(48) %4, ptr noundef nonnull @.str.2)
  store ptr getelementptr inbounds inrange(-16, 64) (i8, ptr @_ZTVN5zxing18FormatErrorHandlerE, i64 16), ptr %4, align 8
  %8 = getelementptr inbounds i8, ptr %4, i64 8
  store i32 6, ptr %8, align 8
  %9 = invoke noundef nonnull align 8 dereferenceable(48) ptr @_ZN5zxing12ErrorHandleraSERKS0_(ptr noundef nonnull align 8 dereferenceable(48) %1, ptr noundef nonnull align 8 dereferenceable(48) %4)
          to label %10 unwind label %11

10:                                               ; preds = %7
  store ptr getelementptr inbounds inrange(-16, 64) (i8, ptr @_ZTVN5zxing12ErrorHandlerE, i64 16), ptr %4, align 8
  br label %.sink.split

11:                                               ; preds = %7
  %12 = landingpad { ptr, i32 }
          cleanup
  store ptr getelementptr inbounds inrange(-16, 64) (i8, ptr @_ZTVN5zxing12ErrorHandlerE, i64 16), ptr %4, align 8
  br label %common.resume

13:                                               ; preds = %2
  %14 = add nsw i32 %0, -17
  %15 = ashr exact i32 %14, 2
  call void @llvm.lifetime.start.p0(i64 48, ptr nonnull %3)
  %16 = icmp slt i32 %15, 1
  %17 = load i32, ptr @_ZN5zxing6qrcodeL10N_VERSIONSE, align 4
  %18 = icmp slt i32 %17, %15
  %or.cond.i = select i1 %16, i1 true, i1 %18
  br i1 %or.cond.i, label %19, label %26

19:                                               ; preds = %13
  call void @_ZN5zxing12ErrorHandlerC2EPKc(ptr noundef nonnull align 8 dereferenceable(48) %3, ptr noundef nonnull @.str)
  store ptr getelementptr inbounds inrange(-16, 64) (i8, ptr @_ZTVN5zxing18ReaderErrorHandlerE, i64 16), ptr %3, align 8
  %20 = getelementptr inbounds i8, ptr %3, i64 8
  store i32 3, ptr %20, align 8
  %21 = invoke noundef nonnull align 8 dereferenceable(48) ptr @_ZN5zxing12ErrorHandleraSERKS0_(ptr noundef nonnull align 8 dereferenceable(48) %1, ptr noundef nonnull align 8 dereferenceable(48) %3)
          to label %22 unwind label %24

22:                                               ; preds = %19
  store ptr getelementptr inbounds inrange(-16, 64) (i8, ptr @_ZTVN5zxing12ErrorHandlerE, i64 16), ptr %3, align 8
  %23 = getelementptr inbounds i8, ptr %3, i64 16
  call void @_ZNSt7__cxx1112basic_stringIcSt11char_traitsIcESaIcEED1Ev(ptr noundef nonnull align 8 dereferenceable(32) %23) #18
  br label %_ZN5zxing6qrcode7Version19getVersionForNumberEiRNS_12ErrorHandlerE.exit

common.resume:                                    ; preds = %11, %40, %24
  %.sink13.sroa.phi = phi ptr [ %.sink13.sroa.gep, %11 ], [ %.sink13.sroa.gep15, %40 ], [ %.sink13.sroa.gep16, %24 ]
  %common.resume.op = phi { ptr, i32 } [ %12, %11 ], [ %41, %40 ], [ %25, %24 ]
  call void @_ZNSt7__cxx1112basic_stringIcSt11char_traitsIcESaIcEED1Ev(ptr noundef nonnull align 8 dereferenceable(32) %.sink13.sroa.phi) #18
  resume { ptr, i32 } %common.resume.op

24:                                               ; preds = %19
  %25 = landingpad { ptr, i32 }
          cleanup
  store ptr getelementptr inbounds inrange(-16, 64) (i8, ptr @_ZTVN5zxing12ErrorHandlerE, i64 16), ptr %3, align 8
  br label %common.resume

26:                                               ; preds = %13
  %27 = load ptr, ptr @_ZN5zxing6qrcode7Version8VERSIONSE, align 8
  %28 = zext nneg i32 %15 to i64
  %29 = getelementptr %"class.zxing::Ref", ptr %27, i64 %28
  %30 = getelementptr i8, ptr %29, i64 -8
  %31 = load ptr, ptr %30, align 8
  br label %_ZN5zxing6qrcode7Version19getVersionForNumberEiRNS_12ErrorHandlerE.exit

_ZN5zxing6qrcode7Version19getVersionForNumberEiRNS_12ErrorHandlerE.exit: ; preds = %22, %26
  %.0.i = phi ptr [ null, %22 ], [ %31, %26 ]
  call void @llvm.lifetime.end.p0(i64 48, ptr nonnull %3)
  %32 = load ptr, ptr %1, align 8
  %33 = getelementptr inbounds i8, ptr %32, i64 16
  %34 = load ptr, ptr %33, align 8
  %35 = call noundef i32 %34(ptr noundef nonnull align 8 dereferenceable(48) %1)
  %.not11 = icmp eq i32 %35, 0
  br i1 %.not11, label %42, label %36

36:                                               ; preds = %_ZN5zxing6qrcode7Version19getVersionForNumberEiRNS_12ErrorHandlerE.exit
  call void @_ZN5zxing12ErrorHandlerC2EPKc(ptr noundef nonnull align 8 dereferenceable(48) %5, ptr noundef nonnull @.str.3)
  store ptr getelementptr inbounds inrange(-16, 64) (i8, ptr @_ZTVN5zxing18FormatErrorHandlerE, i64 16), ptr %5, align 8
  %37 = getelementptr inbounds i8, ptr %5, i64 8
  store i32 6, ptr %37, align 8
  %38 = invoke noundef nonnull align 8 dereferenceable(48) ptr @_ZN5zxing12ErrorHandleraSERKS0_(ptr noundef nonnull align 8 dereferenceable(48) %1, ptr noundef nonnull align 8 dereferenceable(48) %5)
          to label %39 unwind label %40

39:                                               ; preds = %36
  store ptr getelementptr inbounds inrange(-16, 64) (i8, ptr @_ZTVN5zxing12ErrorHandlerE, i64 16), ptr %5, align 8
  br label %.sink.split

40:                                               ; preds = %36
  %41 = landingpad { ptr, i32 }
          cleanup
  store ptr getelementptr inbounds inrange(-16, 64) (i8, ptr @_ZTVN5zxing12ErrorHandlerE, i64 16), ptr %5, align 8
  br label %common.resume

.sink.split:                                      ; preds = %10, %39
  %.sink14.sroa.phi = phi ptr [ %.sink14.sroa.gep, %39 ], [ %.sink14.sroa.gep17, %10 ]
  call void @_ZNSt7__cxx1112basic_stringIcSt11char_traitsIcESaIcEED1Ev(ptr noundef nonnull align 8 dereferenceable(32) %.sink14.sroa.phi) #18
  br label %42

42:                                               ; preds = %.sink.split, %_ZN5zxing6qrcode7Version19getVersionForNumberEiRNS_12ErrorHandlerE.exit
  %.0 = phi ptr [ %.0.i, %_ZN5zxing6qrcode7Version19getVersionForNumberEiRNS_12ErrorHandlerE.exit ], [ null, %.sink.split ]
  ret ptr %.0
}